target datalayout = "e-m:e-p270:32:32-p271:32:32-p272:64:64-i64:64-i128:128-f80:128-n8:16:32:64-S128"
target triple = "x86_64-pc-linux-gnu"

%struct.HASHCTL = type { i64, i64, i64, i64, i64, i64, ptr, ptr, ptr, ptr, ptr, ptr }
%struct.ReorderBuffer = type { ptr, %struct.dlist_head, %struct.dlist_head, %struct.dclist_head, i32, ptr, ptr, ptr, ptr, ptr, ptr, ptr, ptr, ptr, ptr, ptr, ptr, ptr, ptr, ptr, ptr, ptr, ptr, ptr, ptr, i8, ptr, ptr, ptr, ptr, i64, ptr, i64, i64, ptr, i64, i64, i64, i64, i64, i64, i64, i64 }
%struct.dlist_head = type { %struct.dlist_node }
%struct.dlist_node = type { ptr, ptr }
%struct.dclist_head = type { %struct.dlist_head, i32 }
%struct.ReorderBufferTXN = type { i32, i32, i32, ptr, i64, i64, i64, ptr, i64, i16, i64, %union.anon.4, ptr, i64, %struct.dlist_node, ptr, i32, i64, i64, %struct.dlist_head, %struct.dlist_head, i64, ptr, ptr, %struct.dlist_head, i32, i32, ptr, %struct.dlist_node, %struct.dlist_node, %struct.pairingheap_node, i64, i64, ptr }
%union.anon.4 = type { i64 }
%struct.pairingheap_node = type { ptr, ptr, ptr }
%struct.ReorderBufferChange = type { i64, i32, ptr, i16, %union.anon, %struct.dlist_node }
%union.anon = type { %struct.anon }
%struct.anon = type { %struct.RelFileLocator, i8, ptr, ptr }
%struct.RelFileLocator = type { i32, i32, i32 }
%struct.RelationData = type { %struct.RelFileLocator, ptr, i32, i32, i8, i8, i8, i8, i8, i32, i32, i32, i32, ptr, ptr, i32, %struct.LockInfoData, ptr, ptr, ptr, ptr, ptr, i8, ptr, ptr, ptr, ptr, ptr, ptr, i32, ptr, i8, ptr, ptr, i32, i8, i32, ptr, i8, ptr, ptr, ptr, ptr, ptr, ptr, ptr, i32, ptr, ptr, ptr, ptr, ptr, ptr, ptr, ptr, ptr, ptr, ptr, ptr, ptr, ptr, ptr, ptr, ptr, ptr, ptr, i32, i8, ptr }
%struct.LockInfoData = type { %struct.LockRelId }
%struct.LockRelId = type { i32, i32 }
%struct.varattrib_1b = type { i8, [0 x i8] }
%struct.ReorderBufferToastEnt = type { i32, i32, i64, i64, %struct.dlist_head, ptr }
%struct.anon.7 = type { i32, [0 x i8] }

@.str.6 = private unnamed_addr constant [16 x i8] c"reorderbuffer.c\00", align 1
@.str.29 = private unnamed_addr constant [58 x i8] c"got sequence entry %d for toast chunk %u instead of seq 0\00", align 1
@__func__.ReorderBufferToastAppendChunk = private unnamed_addr constant [30 x i8] c"ReorderBufferToastAppendChunk\00", align 1
@.str.30 = private unnamed_addr constant [59 x i8] c"got sequence entry %d for toast chunk %u instead of seq %d\00", align 1
@.str.31 = private unnamed_addr constant [31 x i8] c"unexpected type of toast chunk\00", align 1
@.str.32 = private unnamed_addr constant [23 x i8] c"ReorderBufferToastHash\00", align 1

; Function Attrs: inlinehint nounwind uwtable
define internal void @dlist_push_tail(ptr noundef %0, ptr noundef %1) #4 {
  %3 = alloca ptr, align 8
  %4 = alloca ptr, align 8
  store ptr %0, ptr %3, align 8
  store ptr %1, ptr %4, align 8
  %5 = load ptr, ptr %3, align 8
  %6 = getelementptr inbounds nuw %struct.dlist_head, ptr %5, i32 0, i32 0
  %7 = getelementptr inbounds nuw %struct.dlist_node, ptr %6, i32 0, i32 1
  %8 = load ptr, ptr %7, align 8
  %9 = icmp eq ptr %8, null
  br i1 %9, label %10, label %12

10:                                               ; preds = %2
  %11 = load ptr, ptr %3, align 8
  call void @dlist_init(ptr noundef %11)
  br label %12

12:                                               ; preds = %10, %2
  %13 = load ptr, ptr %3, align 8
  %14 = getelementptr inbounds nuw %struct.dlist_head, ptr %13, i32 0, i32 0
  %15 = load ptr, ptr %4, align 8
  %16 = getelementptr inbounds nuw %struct.dlist_node, ptr %15, i32 0, i32 1
  store ptr %14, ptr %16, align 8
  %17 = load ptr, ptr %3, align 8
  %18 = getelementptr inbounds nuw %struct.dlist_head, ptr %17, i32 0, i32 0
  %19 = getelementptr inbounds nuw %struct.dlist_node, ptr %18, i32 0, i32 0
  %20 = load ptr, ptr %19, align 8
  %21 = load ptr, ptr %4, align 8
  %22 = getelementptr inbounds nuw %struct.dlist_node, ptr %21, i32 0, i32 0
  store ptr %20, ptr %22, align 8
  %23 = load ptr, ptr %4, align 8
  %24 = load ptr, ptr %4, align 8
  %25 = getelementptr inbounds nuw %struct.dlist_node, ptr %24, i32 0, i32 0
  %26 = load ptr, ptr %25, align 8
  %27 = getelementptr inbounds nuw %struct.dlist_node, ptr %26, i32 0, i32 1
  store ptr %23, ptr %27, align 8
  %28 = load ptr, ptr %4, align 8
  %29 = load ptr, ptr %3, align 8
  %30 = getelementptr inbounds nuw %struct.dlist_head, ptr %29, i32 0, i32 0
  %31 = getelementptr inbounds nuw %struct.dlist_node, ptr %30, i32 0, i32 0
  store ptr %28, ptr %31, align 8
  ret void
}

; Function Attrs: inlinehint nounwind uwtable
define internal ptr @DatumGetPointer(i64 noundef %0) #4 {
  %2 = alloca i64, align 8
  store i64 %0, ptr %2, align 8
  %3 = load i64, ptr %2, align 8
  %4 = inttoptr i64 %3 to ptr
  ret ptr %4
}

; Function Attrs: inlinehint nounwind uwtable
define internal void @dlist_init(ptr noundef %0) #4 {
  %2 = alloca ptr, align 8
  store ptr %0, ptr %2, align 8
  %3 = load ptr, ptr %2, align 8
  %4 = getelementptr inbounds nuw %struct.dlist_head, ptr %3, i32 0, i32 0
  %5 = load ptr, ptr %2, align 8
  %6 = getelementptr inbounds nuw %struct.dlist_head, ptr %5, i32 0, i32 0
  %7 = getelementptr inbounds nuw %struct.dlist_node, ptr %6, i32 0, i32 0
  store ptr %4, ptr %7, align 8
  %8 = load ptr, ptr %2, align 8
  %9 = getelementptr inbounds nuw %struct.dlist_head, ptr %8, i32 0, i32 0
  %10 = getelementptr inbounds nuw %struct.dlist_node, ptr %9, i32 0, i32 1
  store ptr %4, ptr %10, align 8
  ret void
}

; Function Attrs: inlinehint nounwind uwtable
define internal i32 @DatumGetInt32(i64 noundef %0) #4 {
  %2 = alloca i64, align 8
  store i64 %0, ptr %2, align 8
  %3 = load i64, ptr %2, align 8
  %4 = trunc i64 %3 to i32
  ret i32 %4
}

; Function Attrs: inlinehint nounwind uwtable
define internal i32 @DatumGetObjectId(i64 noundef %0) #4 {
  %2 = alloca i64, align 8
  store i64 %0, ptr %2, align 8
  %3 = load i64, ptr %2, align 8
  %4 = trunc i64 %3 to i32
  ret i32 %4
}

; Function Attrs: nounwind uwtable
define internal void @ReorderBufferToastInitHash(ptr noundef %0, ptr noundef %1) #0 {
  %3 = alloca ptr, align 8
  %4 = alloca ptr, align 8
  %5 = alloca %struct.HASHCTL, align 8
  store ptr %0, ptr %3, align 8
  store ptr %1, ptr %4, align 8
  call void @llvm.lifetime.start.p0(i64 96, ptr %5) #13
  %6 = getelementptr inbounds nuw %struct.HASHCTL, ptr %5, i32 0, i32 4
  store i64 4, ptr %6, align 8
  %7 = getelementptr inbounds nuw %struct.HASHCTL, ptr %5, i32 0, i32 5
  store i64 48, ptr %7, align 8
  %8 = load ptr, ptr %3, align 8
  %9 = getelementptr inbounds nuw %struct.ReorderBuffer, ptr %8, i32 0, i32 26
  %10 = load ptr, ptr %9, align 8
  %11 = getelementptr inbounds nuw %struct.HASHCTL, ptr %5, i32 0, i32 10
  store ptr %10, ptr %11, align 8
  %12 = call ptr @hash_create(ptr noundef @.str.32, i64 noundef 5, ptr noundef %5, i32 noundef 1064)
  %13 = load ptr, ptr %4, align 8
  %14 = getelementptr inbounds nuw %struct.ReorderBufferTXN, ptr %13, i32 0, i32 23
  store ptr %12, ptr %14, align 8
  call void @llvm.lifetime.end.p0(i64 96, ptr %5) #13
  ret void
}

; Function Attrs: nounwind uwtable
define internal void @ReorderBufferToastAppendChunk(ptr noundef %0, ptr noundef %1, ptr noundef %2, ptr noundef %3) #0 {
  %5 = alloca ptr, align 8
  %6 = alloca ptr, align 8
  %7 = alloca ptr, align 8
  %8 = alloca ptr, align 8
  %9 = alloca ptr, align 8
  %10 = alloca ptr, align 8
  %11 = alloca i8, align 1
  %12 = alloca i32, align 4
  %13 = alloca i8, align 1
  %14 = alloca ptr, align 8
  %15 = alloca ptr, align 8
  %16 = alloca i32, align 4
  %17 = alloca i32, align 4
  store ptr %0, ptr %5, align 8
  store ptr %1, ptr %6, align 8
  store ptr %2, ptr %7, align 8
  store ptr %3, ptr %8, align 8
  call void @llvm.lifetime.start.p0(i64 8, ptr %9) #13
  call void @llvm.lifetime.start.p0(i64 8, ptr %10) #13
  call void @llvm.lifetime.start.p0(i64 1, ptr %11) #13
  call void @llvm.lifetime.start.p0(i64 4, ptr %12) #13
  call void @llvm.lifetime.start.p0(i64 1, ptr %13) #13
  call void @llvm.lifetime.start.p0(i64 8, ptr %14) #13
  call void @llvm.lifetime.start.p0(i64 8, ptr %15) #13
  %18 = load ptr, ptr %7, align 8
  %19 = getelementptr inbounds nuw %struct.RelationData, ptr %18, i32 0, i32 14
  %20 = load ptr, ptr %19, align 8
  store ptr %20, ptr %15, align 8
  call void @llvm.lifetime.start.p0(i64 4, ptr %16) #13
  call void @llvm.lifetime.start.p0(i64 4, ptr %17) #13
  %21 = load ptr, ptr %6, align 8
  %22 = getelementptr inbounds nuw %struct.ReorderBufferTXN, ptr %21, i32 0, i32 23
  %23 = load ptr, ptr %22, align 8
  %24 = icmp eq ptr %23, null
  br i1 %24, label %25, label %28

25:                                               ; preds = %4
  %26 = load ptr, ptr %5, align 8
  %27 = load ptr, ptr %6, align 8
  call void @ReorderBufferToastInitHash(ptr noundef %26, ptr noundef %27)
  br label %28

28:                                               ; preds = %25, %4
  %29 = load ptr, ptr %8, align 8
  %30 = getelementptr inbounds nuw %struct.ReorderBufferChange, ptr %29, i32 0, i32 4
  %31 = getelementptr inbounds nuw %struct.anon, ptr %30, i32 0, i32 3
  %32 = load ptr, ptr %31, align 8
  store ptr %32, ptr %10, align 8
  %33 = load ptr, ptr %10, align 8
  %34 = load ptr, ptr %15, align 8
  %35 = call i64 @fastgetattr(ptr noundef %33, i32 noundef 1, ptr noundef %34, ptr noundef %13)
  %36 = call i32 @DatumGetObjectId(i64 noundef %35)
  store i32 %36, ptr %16, align 4
  %37 = load ptr, ptr %10, align 8
  %38 = load ptr, ptr %15, align 8
  %39 = call i64 @fastgetattr(ptr noundef %37, i32 noundef 2, ptr noundef %38, ptr noundef %13)
  %40 = call i32 @DatumGetInt32(i64 noundef %39)
  store i32 %40, ptr %17, align 4
  %41 = load ptr, ptr %6, align 8
  %42 = getelementptr inbounds nuw %struct.ReorderBufferTXN, ptr %41, i32 0, i32 23
  %43 = load ptr, ptr %42, align 8
  %44 = call ptr @hash_search(ptr noundef %43, ptr noundef %16, i32 noundef 1, ptr noundef %11)
  store ptr %44, ptr %9, align 8
  %45 = load i8, ptr %11, align 1, !range !6, !noundef !7
  %46 = trunc i8 %45 to i1
  br i1 %46, label %74, label %47

47:                                               ; preds = %28
  %48 = load ptr, ptr %9, align 8
  %49 = getelementptr inbounds nuw %struct.ReorderBufferToastEnt, ptr %48, i32 0, i32 2
  store i64 0, ptr %49, align 8
  %50 = load ptr, ptr %9, align 8
  %51 = getelementptr inbounds nuw %struct.ReorderBufferToastEnt, ptr %50, i32 0, i32 1
  store i32 0, ptr %51, align 4
  %52 = load ptr, ptr %9, align 8
  %53 = getelementptr inbounds nuw %struct.ReorderBufferToastEnt, ptr %52, i32 0, i32 3
  store i64 0, ptr %53, align 8
  %54 = load ptr, ptr %9, align 8
  %55 = getelementptr inbounds nuw %struct.ReorderBufferToastEnt, ptr %54, i32 0, i32 5
  store ptr null, ptr %55, align 8
  %56 = load ptr, ptr %9, align 8
  %57 = getelementptr inbounds nuw %struct.ReorderBufferToastEnt, ptr %56, i32 0, i32 4
  call void @dlist_init(ptr noundef %57)
  %58 = load i32, ptr %17, align 4
  %59 = icmp ne i32 %58, 0
  br i1 %59, label %60, label %73

60:                                               ; preds = %47
  br label %61

61:                                               ; preds = %60
  br i1 true, label %62, label %64

62:                                               ; preds = %61
  %63 = call zeroext i1 @errstart_cold(i32 noundef 21, ptr noundef null) #15
  br i1 %63, label %66, label %70

64:                                               ; preds = %61
  %65 = call zeroext i1 @errstart(i32 noundef 21, ptr noundef null)
  br i1 %65, label %66, label %70

66:                                               ; preds = %64, %62
  %67 = load i32, ptr %17, align 4
  %68 = load i32, ptr %16, align 4
  %69 = call i32 (ptr, ...) @errmsg_internal(ptr noundef @.str.29, i32 noundef %67, i32 noundef %68)
  call void @errfinish(ptr noundef @.str.6, i32 noundef 4870, ptr noundef @__func__.ReorderBufferToastAppendChunk)
  br label %70

70:                                               ; preds = %66, %64, %62
  unreachable

71:                                               ; No predecessors!
  br label %72

72:                                               ; preds = %71
  br label %73

73:                                               ; preds = %72, %47
  br label %102

74:                                               ; preds = %28
  %75 = load i8, ptr %11, align 1, !range !6, !noundef !7
  %76 = trunc i8 %75 to i1
  br i1 %76, label %77, label %101

77:                                               ; preds = %74
  %78 = load i32, ptr %17, align 4
  %79 = load ptr, ptr %9, align 8
  %80 = getelementptr inbounds nuw %struct.ReorderBufferToastEnt, ptr %79, i32 0, i32 1
  %81 = load i32, ptr %80, align 4
  %82 = add i32 %81, 1
  %83 = icmp ne i32 %78, %82
  br i1 %83, label %84, label %101

84:                                               ; preds = %77
  br label %85

85:                                               ; preds = %84
  br i1 true, label %86, label %88

86:                                               ; preds = %85
  %87 = call zeroext i1 @errstart_cold(i32 noundef 21, ptr noundef null) #15
  br i1 %87, label %90, label %98

88:                                               ; preds = %85
  %89 = call zeroext i1 @errstart(i32 noundef 21, ptr noundef null)
  br i1 %89, label %90, label %98

90:                                               ; preds = %88, %86
  %91 = load i32, ptr %17, align 4
  %92 = load i32, ptr %16, align 4
  %93 = load ptr, ptr %9, align 8
  %94 = getelementptr inbounds nuw %struct.ReorderBufferToastEnt, ptr %93, i32 0, i32 1
  %95 = load i32, ptr %94, align 4
  %96 = add i32 %95, 1
  %97 = call i32 (ptr, ...) @errmsg_internal(ptr noundef @.str.30, i32 noundef %91, i32 noundef %92, i32 noundef %96)
  call void @errfinish(ptr noundef @.str.6, i32 noundef 4874, ptr noundef @__func__.ReorderBufferToastAppendChunk)
  br label %98

98:                                               ; preds = %90, %88, %86
  unreachable

99:                                               ; No predecessors!
  br label %100

100:                                              ; preds = %99
  br label %101

101:                                              ; preds = %100, %77, %74
  br label %102

102:                                              ; preds = %101, %73
  %103 = load ptr, ptr %10, align 8
  %104 = load ptr, ptr %15, align 8
  %105 = call i64 @fastgetattr(ptr noundef %103, i32 noundef 3, ptr noundef %104, ptr noundef %13)
  %106 = call ptr @DatumGetPointer(i64 noundef %105)
  store ptr %106, ptr %14, align 8
  %107 = load ptr, ptr %14, align 8
  %108 = getelementptr inbounds nuw %struct.varattrib_1b, ptr %107, i32 0, i32 0
  %109 = load i8, ptr %108, align 1
  %110 = zext i8 %109 to i32
  %111 = and i32 %110, 3
  %112 = icmp eq i32 %111, 0
  br i1 %112, label %113, label %120

113:                                              ; preds = %102
  %114 = load ptr, ptr %14, align 8
  %115 = getelementptr inbounds nuw %struct.anon.7, ptr %114, i32 0, i32 0
  %116 = load i32, ptr %115, align 4
  %117 = lshr i32 %116, 2
  %118 = and i32 %117, 1073741823
  %119 = sub i32 %118, 4
  store i32 %119, ptr %12, align 4
  br label %149

120:                                              ; preds = %102
  %121 = load ptr, ptr %14, align 8
  %122 = getelementptr inbounds nuw %struct.varattrib_1b, ptr %121, i32 0, i32 0
  %123 = load i8, ptr %122, align 1
  %124 = zext i8 %123 to i32
  %125 = and i32 %124, 1
  %126 = icmp eq i32 %125, 1
  br i1 %126, label %127, label %137

127:                                              ; preds = %120
  %128 = load ptr, ptr %14, align 8
  %129 = getelementptr inbounds nuw %struct.varattrib_1b, ptr %128, i32 0, i32 0
  %130 = load i8, ptr %129, align 1
  %131 = zext i8 %130 to i32
  %132 = ashr i32 %131, 1
  %133 = and i32 %132, 127
  %134 = sext i32 %133 to i64
  %135 = sub i64 %134, 1
  %136 = trunc i64 %135 to i32
  store i32 %136, ptr %12, align 4
  br label %148

137:                                              ; preds = %120
  br label %138

138:                                              ; preds = %137
  br i1 true, label %139, label %141

139:                                              ; preds = %138
  %140 = call zeroext i1 @errstart_cold(i32 noundef 21, ptr noundef null) #15
  br i1 %140, label %143, label %145

141:                                              ; preds = %138
  %142 = call zeroext i1 @errstart(i32 noundef 21, ptr noundef null)
  br i1 %142, label %143, label %145

143:                                              ; preds = %141, %139
  %144 = call i32 (ptr, ...) @errmsg_internal(ptr noundef @.str.31)
  call void @errfinish(ptr noundef @.str.6, i32 noundef 4886, ptr noundef @__func__.ReorderBufferToastAppendChunk)
  br label %145

145:                                              ; preds = %143, %141, %139
  unreachable

146:                                              ; No predecessors!
  br label %147

147:                                              ; preds = %146
  br label %148

148:                                              ; preds = %147, %127
  br label %149

149:                                              ; preds = %148, %113
  %150 = load i32, ptr %12, align 4
  %151 = sext i32 %150 to i64
  %152 = load ptr, ptr %9, align 8
  %153 = getelementptr inbounds nuw %struct.ReorderBufferToastEnt, ptr %152, i32 0, i32 3
  %154 = load i64, ptr %153, align 8
  %155 = add i64 %154, %151
  store i64 %155, ptr %153, align 8
  %156 = load i32, ptr %17, align 4
  %157 = load ptr, ptr %9, align 8
  %158 = getelementptr inbounds nuw %struct.ReorderBufferToastEnt, ptr %157, i32 0, i32 1
  store i32 %156, ptr %158, align 4
  %159 = load ptr, ptr %9, align 8
  %160 = getelementptr inbounds nuw %struct.ReorderBufferToastEnt, ptr %159, i32 0, i32 2
  %161 = load i64, ptr %160, align 8
  %162 = add i64 %161, 1
  store i64 %162, ptr %160, align 8
  %163 = load ptr, ptr %9, align 8
  %164 = getelementptr inbounds nuw %struct.ReorderBufferToastEnt, ptr %163, i32 0, i32 4
  %165 = load ptr, ptr %8, align 8
  %166 = getelementptr inbounds nuw %struct.ReorderBufferChange, ptr %165, i32 0, i32 5
  call void @dlist_push_tail(ptr noundef %164, ptr noundef %166)
  call void @llvm.lifetime.end.p0(i64 4, ptr %17) #13
  call void @llvm.lifetime.end.p0(i64 4, ptr %16) #13
  call void @llvm.lifetime.end.p0(i64 8, ptr %15) #13
  call void @llvm.lifetime.end.p0(i64 8, ptr %14) #13
  call void @llvm.lifetime.end.p0(i64 1, ptr %13) #13
  call void @llvm.lifetime.end.p0(i64 4, ptr %12) #13
  call void @llvm.lifetime.end.p0(i64 1, ptr %11) #13
  call void @llvm.lifetime.end.p0(i64 8, ptr %10) #13
  call void @llvm.lifetime.end.p0(i64 8, ptr %9) #13
  ret void
}