; Function Attrs: nounwind uwtable
define internal fastcc void @ReorderBufferToastAppendChunk(ptr noundef readonly captures(none) %0, ptr noundef captures(none) %1, ptr %.64.val, ptr noundef %2) unnamed_addr #0 {
  %4 = alloca %struct.HASHCTL, align 8
  %5 = alloca i8, align 1
  %6 = alloca i8, align 1
  %7 = alloca i32, align 4
  call void @llvm.lifetime.start.p0(i64 1, ptr nonnull %5) #19
  call void @llvm.lifetime.start.p0(i64 1, ptr nonnull %6) #19
  call void @llvm.lifetime.start.p0(i64 4, ptr nonnull %7) #19
  %8 = getelementptr inbounds nuw i8, ptr %1, i64 200
  %9 = load ptr, ptr %8, align 8
  %10 = icmp eq ptr %9, null
  br i1 %10, label %11, label %17

11:                                               ; preds = %3
  %12 = getelementptr i8, ptr %0, i64 240
  %.val = load ptr, ptr %12, align 8
  call void @llvm.lifetime.start.p0(i64 96, ptr nonnull %4) #19
  %13 = getelementptr inbounds nuw i8, ptr %4, i64 32
  store i64 4, ptr %13, align 8
  %14 = getelementptr inbounds nuw i8, ptr %4, i64 40
  store i64 48, ptr %14, align 8
  %15 = getelementptr inbounds nuw i8, ptr %4, i64 80
  store ptr %.val, ptr %15, align 8
  %16 = call ptr @hash_create(ptr noundef nonnull @.str.32, i64 noundef 5, ptr noundef nonnull %4, i32 noundef 1064) #19
  store ptr %16, ptr %8, align 8
  call void @llvm.lifetime.end.p0(i64 96, ptr nonnull %4) #19
  br label %17

17:                                               ; preds = %11, %3
  %18 = getelementptr inbounds nuw i8, ptr %2, i64 56
  %19 = load ptr, ptr %18, align 8
  %20 = call fastcc i64 @fastgetattr(ptr noundef %19, i32 noundef 1, ptr noundef %.64.val, ptr noundef %6)
  %21 = trunc i64 %20 to i32
  store i32 %21, ptr %7, align 4
  %22 = call fastcc i64 @fastgetattr(ptr noundef %19, i32 noundef 2, ptr noundef %.64.val, ptr noundef %6)
  %23 = trunc i64 %22 to i32
  %24 = load ptr, ptr %8, align 8
  %25 = call ptr @hash_search(ptr noundef %24, ptr noundef nonnull %7, i32 noundef 1, ptr noundef nonnull %5) #19
  %26 = load i8, ptr %5, align 1, !range !6, !noundef !7
  %27 = trunc nuw i8 %26 to i1
  %28 = getelementptr inbounds nuw i8, ptr %25, i64 4
  br i1 %27, label %37, label %29

29:                                               ; preds = %17
  %30 = getelementptr inbounds nuw i8, ptr %25, i64 40
  store ptr null, ptr %30, align 8
  %31 = getelementptr inbounds nuw i8, ptr %25, i64 24
  call void @llvm.memset.p0.i64(ptr noundef nonnull align 4 dereferenceable(20) %28, i8 0, i64 20, i1 false)
  store ptr %31, ptr %31, align 8
  %32 = getelementptr inbounds nuw i8, ptr %25, i64 32
  store ptr %31, ptr %32, align 8
  %.not = icmp eq i32 %23, 0
  br i1 %.not, label %46, label %33

33:                                               ; preds = %29
  %34 = call zeroext i1 @errstart_cold(i32 noundef 21, ptr noundef null) #20
  call void @llvm.assume(i1 %34)
  %35 = load i32, ptr %7, align 4
  %36 = call i32 (ptr, ...) @errmsg_internal(ptr noundef nonnull @.str.29, i32 noundef %23, i32 noundef %35) #19
  call void @errfinish(ptr noundef nonnull @.str.6, i32 noundef 4870, ptr noundef nonnull @__func__.ReorderBufferToastAppendChunk) #19
  unreachable

37:                                               ; preds = %17
  %38 = load i32, ptr %28, align 4
  %39 = add i32 %38, 1
  %.not34 = icmp eq i32 %39, %23
  br i1 %.not34, label %46, label %40

40:                                               ; preds = %37
  %41 = call zeroext i1 @errstart_cold(i32 noundef 21, ptr noundef null) #20
  call void @llvm.assume(i1 %41)
  %42 = load i32, ptr %7, align 4
  %43 = load i32, ptr %28, align 4
  %44 = add i32 %43, 1
  %45 = call i32 (ptr, ...) @errmsg_internal(ptr noundef nonnull @.str.30, i32 noundef %23, i32 noundef %42, i32 noundef %44) #19
  call void @errfinish(ptr noundef nonnull @.str.6, i32 noundef 4874, ptr noundef nonnull @__func__.ReorderBufferToastAppendChunk) #19
  unreachable

46:                                               ; preds = %37, %29
  %47 = call fastcc i64 @fastgetattr(ptr noundef %19, i32 noundef 3, ptr noundef %.64.val, ptr noundef %6)
  %48 = inttoptr i64 %47 to ptr
  %49 = load i8, ptr %48, align 1
  %50 = zext i8 %49 to i32
  %51 = and i32 %50, 3
  %52 = icmp eq i32 %51, 0
  br i1 %52, label %53, label %57

53:                                               ; preds = %46
  %54 = load i32, ptr %48, align 4
  %55 = lshr i32 %54, 2
  %56 = add nsw i32 %55, -4
  br label %65

57:                                               ; preds = %46
  %58 = and i32 %50, 1
  %.not35 = icmp eq i32 %58, 0
  br i1 %.not35, label %62, label %59

59:                                               ; preds = %57
  %60 = lshr i32 %50, 1
  %61 = add nsw i32 %60, -1
  br label %65

62:                                               ; preds = %57
  %63 = call zeroext i1 @errstart_cold(i32 noundef 21, ptr noundef null) #20
  call void @llvm.assume(i1 %63)
  %64 = call i32 (ptr, ...) @errmsg_internal(ptr noundef nonnull @.str.31) #19
  call void @errfinish(ptr noundef nonnull @.str.6, i32 noundef 4886, ptr noundef nonnull @__func__.ReorderBufferToastAppendChunk) #19
  unreachable

65:                                               ; preds = %59, %53
  %.0 = phi i32 [ %56, %53 ], [ %61, %59 ]
  %66 = sext i32 %.0 to i64
  %67 = getelementptr inbounds nuw i8, ptr %25, i64 16
  %68 = load i64, ptr %67, align 8
  %69 = add i64 %68, %66
  store i64 %69, ptr %67, align 8
  %70 = getelementptr inbounds nuw i8, ptr %25, i64 4
  store i32 %23, ptr %70, align 4
  %71 = getelementptr inbounds nuw i8, ptr %25, i64 8
  %72 = load i64, ptr %71, align 8
  %73 = add i64 %72, 1
  store i64 %73, ptr %71, align 8
  %74 = getelementptr inbounds nuw i8, ptr %25, i64 24
  %75 = getelementptr inbounds nuw i8, ptr %25, i64 32
  %76 = load ptr, ptr %75, align 8
  %77 = icmp eq ptr %76, null
  br i1 %77, label %78, label %dlist_push_tail.exit

78:                                               ; preds = %65
  store ptr %74, ptr %74, align 8
  store ptr %74, ptr %75, align 8
  br label %dlist_push_tail.exit

dlist_push_tail.exit:                             ; preds = %65, %78
  %79 = getelementptr inbounds nuw i8, ptr %2, i64 64
  %80 = getelementptr inbounds nuw i8, ptr %2, i64 72
  store ptr %74, ptr %80, align 8
  %81 = load ptr, ptr %74, align 8
  store ptr %81, ptr %79, align 8
  %82 = getelementptr inbounds nuw i8, ptr %81, i64 8
  store ptr %79, ptr %82, align 8
  store ptr %79, ptr %74, align 8
  call void @llvm.lifetime.end.p0(i64 4, ptr nonnull %7) #19
  call void @llvm.lifetime.end.p0(i64 1, ptr nonnull %6) #19
  call void @llvm.lifetime.end.p0(i64 1, ptr nonnull %5) #19
  ret void
}